; Function Attrs: nounwind uwtable
define noalias nonnull ptr @l_Lean_Server_Completion_findCompletionInfosAt___lambda__1(ptr noundef readonly captures(none) %0, i8 noundef zeroext %1, ptr noundef readnone captures(none) %2) local_unnamed_addr #0 {
  %4 = getelementptr i8, ptr %0, i64 8
  %.val.i = load i64, ptr %4, align 8, !tbaa !12
  %5 = load ptr, ptr @l___private_Lean_Server_Completion_CompletionInfoSelection_0__Lean_Server_Completion_filterDuplicateCompletionInfos___closed__1, align 8, !tbaa !4
  %6 = tail call ptr @l_Array_forIn_x27Unsafe_loop___at___private_Lean_Server_Completion_CompletionInfoSelection_0__Lean_Server_Completion_filterDuplicateCompletionInfos___spec__2(ptr readonly poison, ptr nonnull poison, ptr noundef readonly %0, i64 noundef %.val.i, i64 noundef 0, ptr noundef %5)
  tail call void @lean_inc_heartbeat() #4
  %7 = tail call noalias ptr @mi_malloc_small(i64 noundef 24) #4
  %8 = icmp eq ptr %7, null
  br i1 %8, label %9, label %lean_alloc_ctor.exit

9:                                                ; preds = %3
  tail call void @lean_internal_panic_out_of_memory() #5
  unreachable

lean_alloc_ctor.exit:                             ; preds = %3
  %10 = zext i8 %1 to i64
  %11 = shl nuw nsw i64 %10, 1
  %12 = or disjoint i64 %11, 1
  %13 = inttoptr i64 %12 to ptr
  %14 = getelementptr inbounds nuw i8, ptr %7, i64 4
  store i32 1, ptr %7, align 4, !tbaa !8
  store i32 131096, ptr %14, align 4
  %15 = getelementptr inbounds nuw i8, ptr %7, i64 8
  store ptr %6, ptr %15, align 8, !tbaa !4
  %16 = getelementptr inbounds nuw i8, ptr %7, i64 16
  store ptr %13, ptr %16, align 8, !tbaa !4
  ret ptr %7
}